target datalayout = "e-m:e-p270:32:32-p271:32:32-p272:64:64-i64:64-i128:128-f80:128-n8:16:32:64-S128"
target triple = "x86_64-pc-linux-gnu"

%struct.parse_error_callback_arg = type { ptr, ptr }

@.str.31 = private unnamed_addr constant [18 x i8] c"SQL function \22%s\22\00", align 1

; Function Attrs: nounwind uwtable
define internal void @sql_function_parse_error_callback(ptr noundef %0) #0 {
  %2 = alloca ptr, align 8
  %3 = alloca ptr, align 8
  store ptr %0, ptr %2, align 8
  call void @llvm.lifetime.start.p0(i64 8, ptr %3) #8
  %4 = load ptr, ptr %2, align 8
  store ptr %4, ptr %3, align 8
  %5 = load ptr, ptr %3, align 8
  %6 = getelementptr inbounds nuw %struct.parse_error_callback_arg, ptr %5, i32 0, i32 1
  %7 = load ptr, ptr %6, align 8
  %8 = call zeroext i1 @function_parse_error_transpose(ptr noundef %7)
  br i1 %8, label %15, label %9

9:                                                ; preds = %1
  %10 = call i32 @set_errcontext_domain(ptr noundef null)
  %11 = load ptr, ptr %3, align 8
  %12 = getelementptr inbounds nuw %struct.parse_error_callback_arg, ptr %11, i32 0, i32 0
  %13 = load ptr, ptr %12, align 8
  %14 = call i32 (ptr, ...) @errcontext_msg(ptr noundef @.str.31, ptr noundef %13)
  br label %15

15:                                               ; preds = %9, %1
  call void @llvm.lifetime.end.p0(i64 8, ptr %3) #8
  ret void
}