; Function Attrs: nounwind uwtable
define internal void @sql_function_parse_error_callback(ptr noundef readonly captures(none) %0) #0 {
  %2 = getelementptr inbounds nuw i8, ptr %0, i64 8
  %3 = load ptr, ptr %2, align 8
  %4 = tail call zeroext i1 @function_parse_error_transpose(ptr noundef %3)
  br i1 %4, label %9, label %5

5:                                                ; preds = %1
  %6 = tail call i32 @set_errcontext_domain(ptr noundef null) #7
  %7 = load ptr, ptr %0, align 8
  %8 = tail call i32 (ptr, ...) @errcontext_msg(ptr noundef nonnull @.str.31, ptr noundef %7) #7
  br label %9

9:                                                ; preds = %5, %1
  ret void
}